target datalayout = "e-m:e-p270:32:32-p271:32:32-p272:64:64-i64:64-i128:128-f80:128-n8:16:32:64-S128"
target triple = "x86_64-pc-linux-gnu"

%struct.pg_conn = type { ptr, ptr, ptr, ptr, ptr, ptr, ptr, ptr, ptr, ptr, ptr, ptr, ptr, ptr, ptr, ptr, ptr, ptr, ptr, ptr, ptr, ptr, ptr, ptr, ptr, ptr, ptr, ptr, ptr, ptr, ptr, ptr, ptr, ptr, ptr, ptr, ptr, ptr, ptr, ptr, ptr, ptr, ptr, i8, ptr, i32, %struct.PGNoticeHooks, ptr, i32, i32, i32, i32, i32, [6 x i8], i8, i8, i32, i8, i8, i32, i8, i32, ptr, ptr, i32, i32, ptr, ptr, ptr, ptr, ptr, i32, %struct.SockAddr, %struct.SockAddr, i32, i32, i8, i8, i8, i8, i8, i8, ptr, i8, i32, [1 x ptr], i8, i8, ptr, ptr, i32, i32, i32, i8, i8, i32, i32, ptr, i8, i64, ptr, i64, ptr, i32, i32, ptr, i32, i8, i32, i32, i32, i32, ptr, %struct.pg_prng_state, ptr, i32, i32, i32, i32, ptr, i32, i32, i32, i32, ptr, i32, ptr, i8, ptr, ptr, ptr, i32, i8, i8, i8, i8, i8, i8, i8, i8, %struct.PQExpBufferData, i32, %struct.PQExpBufferData }
%struct.PGNoticeHooks = type { ptr, ptr, ptr, ptr }
%struct.SockAddr = type { %struct.sockaddr_storage, i32 }
%struct.sockaddr_storage = type { i16, [118 x i8], i64 }
%struct.pg_prng_state = type { i64, i64 }
%struct.PQExpBufferData = type { ptr, i64, i64 }

@.str.12 = private unnamed_addr constant [14 x i8] c"out of memory\00", align 1
@.str.13 = private unnamed_addr constant [25 x i8] c"show password_encryption\00", align 1
@.str.14 = private unnamed_addr constant [49 x i8] c"unexpected shape of result set returned for SHOW\00", align 1
@.str.15 = private unnamed_addr constant [37 x i8] c"\22password_encryption\22 value too long\00", align 1
@.str.16 = private unnamed_addr constant [3 x i8] c"on\00", align 1
@.str.17 = private unnamed_addr constant [4 x i8] c"off\00", align 1
@.str.18 = private unnamed_addr constant [4 x i8] c"md5\00", align 1
@.str.19 = private unnamed_addr constant [14 x i8] c"scram-sha-256\00", align 1
@.str.20 = private unnamed_addr constant [31 x i8] c"could not encrypt password: %s\00", align 1
@.str.21 = private unnamed_addr constant [48 x i8] c"unrecognized password encryption algorithm \22%s\22\00", align 1

; Function Attrs: nounwind uwtable
define ptr @PQencryptPasswordConn(ptr noundef %0, ptr noundef %1, ptr noundef %2, ptr noundef %3) #0 {
  %5 = alloca ptr, align 8
  %6 = alloca ptr, align 8
  %7 = alloca ptr, align 8
  %8 = alloca ptr, align 8
  %9 = alloca ptr, align 8
  %10 = alloca [51 x i8], align 16
  %11 = alloca ptr, align 8
  %12 = alloca i32, align 4
  %13 = alloca ptr, align 8
  %14 = alloca ptr, align 8
  %15 = alloca ptr, align 8
  %16 = alloca ptr, align 8
  store ptr %0, ptr %6, align 8
  store ptr %1, ptr %7, align 8
  store ptr %2, ptr %8, align 8
  store ptr %3, ptr %9, align 8
  call void @llvm.lifetime.start.p0(i64 51, ptr %10) #7
  call void @llvm.lifetime.start.p0(i64 8, ptr %11) #7
  store ptr null, ptr %11, align 8
  %17 = load ptr, ptr %6, align 8
  %18 = icmp ne ptr %17, null
  br i1 %18, label %20, label %19

19:                                               ; preds = %4
  store ptr null, ptr %5, align 8
  store i32 1, ptr %12, align 4
  br label %122

20:                                               ; preds = %4
  %21 = load ptr, ptr %6, align 8
  %22 = getelementptr inbounds nuw %struct.pg_conn, ptr %21, i32 0, i32 140
  call void @resetPQExpBuffer(ptr noundef %22)
  %23 = load ptr, ptr %6, align 8
  %24 = getelementptr inbounds nuw %struct.pg_conn, ptr %23, i32 0, i32 141
  store i32 0, ptr %24, align 8
  %25 = load ptr, ptr %9, align 8
  %26 = icmp eq ptr %25, null
  br i1 %26, label %27, label %68

27:                                               ; preds = %20
  call void @llvm.lifetime.start.p0(i64 8, ptr %13) #7
  call void @llvm.lifetime.start.p0(i64 8, ptr %14) #7
  %28 = load ptr, ptr %6, align 8
  %29 = call ptr @PQexec(ptr noundef %28, ptr noundef @.str.13)
  store ptr %29, ptr %13, align 8
  %30 = load ptr, ptr %13, align 8
  %31 = icmp eq ptr %30, null
  br i1 %31, label %32, label %33

32:                                               ; preds = %27
  store ptr null, ptr %5, align 8
  store i32 1, ptr %12, align 4
  br label %65

33:                                               ; preds = %27
  %34 = load ptr, ptr %13, align 8
  %35 = call i32 @PQresultStatus(ptr noundef %34)
  %36 = icmp ne i32 %35, 2
  br i1 %36, label %37, label %39

37:                                               ; preds = %33
  %38 = load ptr, ptr %13, align 8
  call void @PQclear(ptr noundef %38)
  store ptr null, ptr %5, align 8
  store i32 1, ptr %12, align 4
  br label %65

39:                                               ; preds = %33
  %40 = load ptr, ptr %13, align 8
  %41 = call i32 @PQntuples(ptr noundef %40)
  %42 = icmp ne i32 %41, 1
  br i1 %42, label %47, label %43

43:                                               ; preds = %39
  %44 = load ptr, ptr %13, align 8
  %45 = call i32 @PQnfields(ptr noundef %44)
  %46 = icmp ne i32 %45, 1
  br i1 %46, label %47, label %50

47:                                               ; preds = %43, %39
  %48 = load ptr, ptr %13, align 8
  call void @PQclear(ptr noundef %48)
  %49 = load ptr, ptr %6, align 8
  call void (ptr, ptr, ...) @libpq_append_conn_error(ptr noundef %49, ptr noundef @.str.14)
  store ptr null, ptr %5, align 8
  store i32 1, ptr %12, align 4
  br label %65

50:                                               ; preds = %43
  %51 = load ptr, ptr %13, align 8
  %52 = call ptr @PQgetvalue(ptr noundef %51, i32 noundef 0, i32 noundef 0)
  store ptr %52, ptr %14, align 8
  %53 = load ptr, ptr %14, align 8
  %54 = call i64 @strlen(ptr noundef %53) #9
  %55 = icmp ugt i64 %54, 50
  br i1 %55, label %56, label %59

56:                                               ; preds = %50
  %57 = load ptr, ptr %13, align 8
  call void @PQclear(ptr noundef %57)
  %58 = load ptr, ptr %6, align 8
  call void (ptr, ptr, ...) @libpq_append_conn_error(ptr noundef %58, ptr noundef @.str.15)
  store ptr null, ptr %5, align 8
  store i32 1, ptr %12, align 4
  br label %65

59:                                               ; preds = %50
  %60 = getelementptr inbounds [51 x i8], ptr %10, i64 0, i64 0
  %61 = load ptr, ptr %14, align 8
  %62 = call ptr @strcpy(ptr noundef %60, ptr noundef %61) #7
  %63 = load ptr, ptr %13, align 8
  call void @PQclear(ptr noundef %63)
  %64 = getelementptr inbounds [51 x i8], ptr %10, i64 0, i64 0
  store ptr %64, ptr %9, align 8
  store i32 0, ptr %12, align 4
  br label %65

65:                                               ; preds = %59, %56, %47, %37, %32
  call void @llvm.lifetime.end.p0(i64 8, ptr %14) #7
  call void @llvm.lifetime.end.p0(i64 8, ptr %13) #7
  %66 = load i32, ptr %12, align 4
  switch i32 %66, label %122 [
    i32 0, label %67
  ]

67:                                               ; preds = %65
  br label %68

68:                                               ; preds = %67, %20
  %69 = load ptr, ptr %9, align 8
  %70 = call i32 @strcmp(ptr noundef %69, ptr noundef @.str.16) #9
  %71 = icmp eq i32 %70, 0
  br i1 %71, label %76, label %72

72:                                               ; preds = %68
  %73 = load ptr, ptr %9, align 8
  %74 = call i32 @strcmp(ptr noundef %73, ptr noundef @.str.17) #9
  %75 = icmp eq i32 %74, 0
  br i1 %75, label %76, label %77

76:                                               ; preds = %72, %68
  store ptr @.str.18, ptr %9, align 8
  br label %77

77:                                               ; preds = %76, %72
  %78 = load ptr, ptr %9, align 8
  %79 = call i32 @strcmp(ptr noundef %78, ptr noundef @.str.19) #9
  %80 = icmp eq i32 %79, 0
  br i1 %80, label %81, label %93

81:                                               ; preds = %77
  call void @llvm.lifetime.start.p0(i64 8, ptr %15) #7
  store ptr null, ptr %15, align 8
  %82 = load ptr, ptr %7, align 8
  %83 = load ptr, ptr %6, align 8
  %84 = getelementptr inbounds nuw %struct.pg_conn, ptr %83, i32 0, i32 131
  %85 = load i32, ptr %84, align 8
  %86 = call ptr @pg_fe_scram_build_secret(ptr noundef %82, i32 noundef %85, ptr noundef %15)
  store ptr %86, ptr %11, align 8
  %87 = load ptr, ptr %11, align 8
  %88 = icmp ne ptr %87, null
  br i1 %88, label %92, label %89

89:                                               ; preds = %81
  %90 = load ptr, ptr %6, align 8
  %91 = load ptr, ptr %15, align 8
  call void (ptr, ptr, ...) @libpq_append_conn_error(ptr noundef %90, ptr noundef @.str.20, ptr noundef %91)
  br label %92

92:                                               ; preds = %89, %81
  call void @llvm.lifetime.end.p0(i64 8, ptr %15) #7
  br label %120

93:                                               ; preds = %77
  %94 = load ptr, ptr %9, align 8
  %95 = call i32 @strcmp(ptr noundef %94, ptr noundef @.str.18) #9
  %96 = icmp eq i32 %95, 0
  br i1 %96, label %97, label %116

97:                                               ; preds = %93
  %98 = call noalias ptr @malloc(i64 noundef 36) #8
  store ptr %98, ptr %11, align 8
  %99 = load ptr, ptr %11, align 8
  %100 = icmp ne ptr %99, null
  br i1 %100, label %101, label %113

101:                                              ; preds = %97
  call void @llvm.lifetime.start.p0(i64 8, ptr %16) #7
  store ptr null, ptr %16, align 8
  %102 = load ptr, ptr %7, align 8
  %103 = load ptr, ptr %8, align 8
  %104 = load ptr, ptr %8, align 8
  %105 = call i64 @strlen(ptr noundef %104) #9
  %106 = load ptr, ptr %11, align 8
  %107 = call zeroext i1 @pg_md5_encrypt(ptr noundef %102, ptr noundef %103, i64 noundef %105, ptr noundef %106, ptr noundef %16)
  br i1 %107, label %112, label %108

108:                                              ; preds = %101
  %109 = load ptr, ptr %6, align 8
  %110 = load ptr, ptr %16, align 8
  call void (ptr, ptr, ...) @libpq_append_conn_error(ptr noundef %109, ptr noundef @.str.20, ptr noundef %110)
  %111 = load ptr, ptr %11, align 8
  call void @free(ptr noundef %111) #7
  store ptr null, ptr %11, align 8
  br label %112

112:                                              ; preds = %108, %101
  call void @llvm.lifetime.end.p0(i64 8, ptr %16) #7
  br label %115

113:                                              ; preds = %97
  %114 = load ptr, ptr %6, align 8
  call void (ptr, ptr, ...) @libpq_append_conn_error(ptr noundef %114, ptr noundef @.str.12)
  br label %115

115:                                              ; preds = %113, %112
  br label %119

116:                                              ; preds = %93
  %117 = load ptr, ptr %6, align 8
  %118 = load ptr, ptr %9, align 8
  call void (ptr, ptr, ...) @libpq_append_conn_error(ptr noundef %117, ptr noundef @.str.21, ptr noundef %118)
  store ptr null, ptr %5, align 8
  store i32 1, ptr %12, align 4
  br label %122

119:                                              ; preds = %115
  br label %120

120:                                              ; preds = %119, %92
  %121 = load ptr, ptr %11, align 8
  store ptr %121, ptr %5, align 8
  store i32 1, ptr %12, align 4
  br label %122

122:                                              ; preds = %120, %116, %65, %19
  call void @llvm.lifetime.end.p0(i64 8, ptr %11) #7
  call void @llvm.lifetime.end.p0(i64 51, ptr %10) #7
  %123 = load ptr, ptr %5, align 8
  ret ptr %123
}