; Function Attrs: nounwind uwtable
define ptr @PQencryptPasswordConn(ptr noundef %0, ptr noundef %1, ptr noundef %2, ptr noundef %3) local_unnamed_addr #0 {
  %5 = alloca [51 x i8], align 16
  %6 = alloca ptr, align 8
  %7 = alloca ptr, align 8
  call void @llvm.lifetime.start.p0(i64 51, ptr nonnull %5) #10
  %.not = icmp eq ptr %0, null
  br i1 %.not, label %.thread, label %8

8:                                                ; preds = %4
  %9 = getelementptr inbounds nuw i8, ptr %0, i64 1120
  tail call void @resetPQExpBuffer(ptr noundef nonnull %9) #10
  %10 = getelementptr inbounds nuw i8, ptr %0, i64 1144
  store i32 0, ptr %10, align 8
  %11 = icmp eq ptr %3, null
  br i1 %11, label %12, label %sub_0

12:                                               ; preds = %8
  %13 = tail call ptr @PQexec(ptr noundef nonnull %0, ptr noundef nonnull @.str.13) #10
  %14 = icmp eq ptr %13, null
  br i1 %14, label %.thread, label %15

15:                                               ; preds = %12
  %16 = tail call i32 @PQresultStatus(ptr noundef nonnull %13) #10
  %.not48 = icmp eq i32 %16, 2
  br i1 %.not48, label %18, label %17

17:                                               ; preds = %15
  tail call void @PQclear(ptr noundef nonnull %13) #10
  br label %.thread

18:                                               ; preds = %15
  %19 = tail call i32 @PQntuples(ptr noundef nonnull %13) #10
  %.not49 = icmp eq i32 %19, 1
  br i1 %.not49, label %20, label %22

20:                                               ; preds = %18
  %21 = tail call i32 @PQnfields(ptr noundef nonnull %13) #10
  %.not50 = icmp eq i32 %21, 1
  br i1 %.not50, label %23, label %22

22:                                               ; preds = %20, %18
  tail call void @PQclear(ptr noundef nonnull %13) #10
  tail call void (ptr, ptr, ...) @libpq_append_conn_error(ptr noundef nonnull %0, ptr noundef nonnull @.str.14) #10
  br label %.thread

23:                                               ; preds = %20
  %24 = tail call ptr @PQgetvalue(ptr noundef nonnull %13, i32 noundef 0, i32 noundef 0) #10
  %25 = tail call i64 @strlen(ptr noundef nonnull dereferenceable(1) %24) #12
  %26 = icmp ugt i64 %25, 50
  br i1 %26, label %27, label %28

27:                                               ; preds = %23
  tail call void @PQclear(ptr noundef nonnull %13) #10
  tail call void (ptr, ptr, ...) @libpq_append_conn_error(ptr noundef nonnull %0, ptr noundef nonnull @.str.15) #10
  br label %.thread

28:                                               ; preds = %23
  %29 = call ptr @strcpy(ptr noundef nonnull dereferenceable(1) %5, ptr noundef nonnull dereferenceable(1) %24) #10
  call void @PQclear(ptr noundef nonnull %13) #10
  br label %sub_0

sub_0:                                            ; preds = %8, %28
  %.038 = phi ptr [ %5, %28 ], [ %3, %8 ]
  %.038.sroa.phi = getelementptr inbounds nuw i8, ptr %.038, i64 2
  %30 = load i8, ptr %.038, align 1
  %.not55 = icmp eq i8 %30, 111
  br i1 %.not55, label %sub_1, label %.tail.thread

sub_1:                                            ; preds = %sub_0
  %.038.sroa.phi61 = getelementptr inbounds nuw i8, ptr %.038, i64 1
  %31 = load i8, ptr %.038.sroa.phi61, align 1
  %.not56 = icmp eq i8 %31, 110
  br i1 %.not56, label %.tail, label %.tail.thread

.tail:                                            ; preds = %sub_1
  %32 = load i8, ptr %.038.sroa.phi, align 1
  %33 = icmp eq i8 %32, 0
  br i1 %33, label %36, label %.tail.thread

.tail.thread:                                     ; preds = %sub_1, %sub_0, %.tail
  %34 = call i32 @strcmp(ptr noundef nonnull dereferenceable(1) %.038, ptr noundef nonnull dereferenceable(4) @.str.17) #12
  %35 = icmp eq i32 %34, 0
  br i1 %35, label %36, label %37

36:                                               ; preds = %.tail.thread, %.tail
  br label %37

37:                                               ; preds = %36, %.tail.thread
  %.2 = phi ptr [ @.str.18, %36 ], [ %.038, %.tail.thread ]
  %38 = call i32 @strcmp(ptr noundef nonnull dereferenceable(1) %.2, ptr noundef nonnull dereferenceable(14) @.str.19) #12
  %39 = icmp eq i32 %38, 0
  br i1 %39, label %40, label %47

40:                                               ; preds = %37
  call void @llvm.lifetime.start.p0(i64 8, ptr nonnull %6) #10
  store ptr null, ptr %6, align 8
  %41 = getelementptr inbounds nuw i8, ptr %0, i64 1104
  %42 = load i32, ptr %41, align 8
  %43 = call ptr @pg_fe_scram_build_secret(ptr noundef %1, i32 noundef %42, ptr noundef nonnull %6) #10
  %.not52 = icmp eq ptr %43, null
  br i1 %.not52, label %44, label %46

44:                                               ; preds = %40
  %45 = load ptr, ptr %6, align 8
  call void (ptr, ptr, ...) @libpq_append_conn_error(ptr noundef nonnull %0, ptr noundef nonnull @.str.20, ptr noundef %45) #10
  br label %46

46:                                               ; preds = %44, %40
  call void @llvm.lifetime.end.p0(i64 8, ptr nonnull %6) #10
  br label %.thread

47:                                               ; preds = %37
  %48 = call i32 @strcmp(ptr noundef nonnull dereferenceable(1) %.2, ptr noundef nonnull dereferenceable(4) @.str.18) #12
  %49 = icmp eq i32 %48, 0
  br i1 %49, label %50, label %59

50:                                               ; preds = %47
  %51 = call noalias dereferenceable_or_null(36) ptr @malloc(i64 noundef 36) #11
  %.not51 = icmp eq ptr %51, null
  br i1 %.not51, label %58, label %52

52:                                               ; preds = %50
  call void @llvm.lifetime.start.p0(i64 8, ptr nonnull %7) #10
  store ptr null, ptr %7, align 8
  %53 = call i64 @strlen(ptr noundef nonnull dereferenceable(1) %2) #12
  %54 = call zeroext i1 @pg_md5_encrypt(ptr noundef %1, ptr noundef nonnull %2, i64 noundef %53, ptr noundef nonnull %51, ptr noundef nonnull %7) #10
  br i1 %54, label %57, label %55

55:                                               ; preds = %52
  %56 = load ptr, ptr %7, align 8
  call void (ptr, ptr, ...) @libpq_append_conn_error(ptr noundef nonnull %0, ptr noundef nonnull @.str.20, ptr noundef %56) #10
  call void @free(ptr noundef nonnull %51) #10
  br label %57

57:                                               ; preds = %55, %52
  %.142 = phi ptr [ %51, %52 ], [ null, %55 ]
  call void @llvm.lifetime.end.p0(i64 8, ptr nonnull %7) #10
  br label %.thread

58:                                               ; preds = %50
  call void (ptr, ptr, ...) @libpq_append_conn_error(ptr noundef nonnull %0, ptr noundef nonnull @.str.12) #10
  br label %.thread

59:                                               ; preds = %47
  call void (ptr, ptr, ...) @libpq_append_conn_error(ptr noundef nonnull %0, ptr noundef nonnull @.str.21, ptr noundef nonnull %.2) #10
  br label %.thread

.thread:                                          ; preds = %12, %27, %22, %17, %46, %57, %58, %4, %59
  %.0 = phi ptr [ null, %59 ], [ null, %4 ], [ %43, %46 ], [ %.142, %57 ], [ null, %58 ], [ null, %17 ], [ null, %22 ], [ null, %27 ], [ null, %12 ]
  call void @llvm.lifetime.end.p0(i64 51, ptr nonnull %5) #10
  ret ptr %.0
}